target datalayout = "e-m:e-p270:32:32-p271:32:32-p272:64:64-i64:64-i128:128-f80:128-n8:16:32:64-S128"
target triple = "x86_64-unknown-linux-gnu"

; Function Attrs: nounwind sspstrong uwtable
define dso_local i32 @scsi_sense_to_errno(i32 noundef %key, i32 noundef %asc, i32 noundef %ascq) #0 {
entry:
  %retval = alloca i32, align 4
  %key.addr = alloca i32, align 4
  %asc.addr = alloca i32, align 4
  %ascq.addr = alloca i32, align 4
  store i32 %key, ptr %key.addr, align 4
  store i32 %asc, ptr %asc.addr, align 4
  store i32 %ascq, ptr %ascq.addr, align 4
  %0 = load i32, ptr %key.addr, align 4
  switch i32 %0, label %sw.default [
    i32 0, label %sw.bb
    i32 1, label %sw.bb
    i32 6, label %sw.bb
    i32 11, label %sw.bb1
    i32 2, label %sw.bb2
    i32 5, label %sw.bb2
    i32 7, label %sw.bb2
  ]

sw.bb:                                            ; preds = %entry, %entry, %entry
  store i32 11, ptr %retval, align 4
  br label %return

sw.bb1:                                           ; preds = %entry
  store i32 125, ptr %retval, align 4
  br label %return

sw.bb2:                                           ; preds = %entry, %entry, %entry
  br label %sw.epilog

sw.default:                                       ; preds = %entry
  store i32 5, ptr %retval, align 4
  br label %return

sw.epilog:                                        ; preds = %sw.bb2
  %1 = load i32, ptr %asc.addr, align 4
  %shl = shl i32 %1, 8
  %2 = load i32, ptr %ascq.addr, align 4
  %or = or i32 %shl, %2
  switch i32 %or, label %sw.default10 [
    i32 6656, label %sw.bb3
    i32 8192, label %sw.bb3
    i32 9216, label %sw.bb3
    i32 9728, label %sw.bb3
    i32 8448, label %sw.bb4
    i32 9991, label %sw.bb4
    i32 9472, label %sw.bb5
    i32 14848, label %sw.bb6
    i32 14849, label %sw.bb6
    i32 14850, label %sw.bb6
    i32 9984, label %sw.bb7
    i32 1025, label %sw.bb8
    i32 1026, label %sw.bb9
  ]

sw.bb3:                                           ; preds = %sw.epilog, %sw.epilog, %sw.epilog, %sw.epilog
  store i32 22, ptr %retval, align 4
  br label %return

sw.bb4:                                           ; preds = %sw.epilog, %sw.epilog
  store i32 28, ptr %retval, align 4
  br label %return

sw.bb5:                                           ; preds = %sw.epilog
  store i32 95, ptr %retval, align 4
  br label %return

sw.bb6:                                           ; preds = %sw.epilog, %sw.epilog, %sw.epilog
  store i32 123, ptr %retval, align 4
  br label %return

sw.bb7:                                           ; preds = %sw.epilog
  store i32 13, ptr %retval, align 4
  br label %return

sw.bb8:                                           ; preds = %sw.epilog
  store i32 115, ptr %retval, align 4
  br label %return

sw.bb9:                                           ; preds = %sw.epilog
  store i32 107, ptr %retval, align 4
  br label %return

sw.default10:                                     ; preds = %sw.epilog
  store i32 5, ptr %retval, align 4
  br label %return

return:                                           ; preds = %sw.default10, %sw.bb9, %sw.bb8, %sw.bb7, %sw.bb6, %sw.bb5, %sw.bb4, %sw.bb3, %sw.default, %sw.bb1, %sw.bb
  %3 = load i32, ptr %retval, align 4
  ret i32 %3
}