; Function Attrs: mustprogress nofree norecurse nosync nounwind sspstrong willreturn memory(none) uwtable
define dso_local range(i32 5, 126) i32 @scsi_sense_to_errno(i32 noundef %key, i32 noundef %asc, i32 noundef %ascq) local_unnamed_addr #7 {
entry:
  switch i32 %key, label %sw.default [
    i32 0, label %return
    i32 1, label %return
    i32 6, label %return
    i32 11, label %sw.bb1
    i32 2, label %sw.epilog
    i32 5, label %sw.epilog
    i32 7, label %sw.epilog
  ]

sw.bb1:                                           ; preds = %entry
  br label %return

sw.default:                                       ; preds = %entry
  br label %return

sw.epilog:                                        ; preds = %entry, %entry, %entry
  %shl = shl i32 %asc, 8
  %or = or i32 %shl, %ascq
  switch i32 %or, label %sw.default10 [
    i32 6656, label %return
    i32 8192, label %return
    i32 9216, label %return
    i32 9728, label %return
    i32 8448, label %sw.bb4
    i32 9991, label %sw.bb4
    i32 9472, label %sw.bb5
    i32 14848, label %sw.bb6
    i32 14849, label %sw.bb6
    i32 14850, label %sw.bb6
    i32 9984, label %sw.bb7
    i32 1025, label %sw.bb8
    i32 1026, label %sw.bb9
  ]

sw.bb4:                                           ; preds = %sw.epilog, %sw.epilog
  br label %return

sw.bb5:                                           ; preds = %sw.epilog
  br label %return

sw.bb6:                                           ; preds = %sw.epilog, %sw.epilog, %sw.epilog
  br label %return

sw.bb7:                                           ; preds = %sw.epilog
  br label %return

sw.bb8:                                           ; preds = %sw.epilog
  br label %return

sw.bb9:                                           ; preds = %sw.epilog
  br label %return

sw.default10:                                     ; preds = %sw.epilog
  br label %return

return:                                           ; preds = %sw.epilog, %sw.epilog, %sw.epilog, %sw.epilog, %entry, %entry, %entry, %sw.default10, %sw.bb9, %sw.bb8, %sw.bb7, %sw.bb6, %sw.bb5, %sw.bb4, %sw.default, %sw.bb1
  %retval.0 = phi i32 [ 5, %sw.default ], [ 5, %sw.default10 ], [ 107, %sw.bb9 ], [ 115, %sw.bb8 ], [ 13, %sw.bb7 ], [ 123, %sw.bb6 ], [ 95, %sw.bb5 ], [ 28, %sw.bb4 ], [ 125, %sw.bb1 ], [ 11, %entry ], [ 11, %entry ], [ 11, %entry ], [ 22, %sw.epilog ], [ 22, %sw.epilog ], [ 22, %sw.epilog ], [ 22, %sw.epilog ]
  ret i32 %retval.0
}